target datalayout = "e-m:e-p270:32:32-p271:32:32-p272:64:64-i64:64-i128:128-f80:128-n8:16:32:64-S128"
target triple = "x86_64-pc-linux-gnu"

%struct.SDL_BlitInfo = type { ptr, ptr, i32, i32, i32, i32, ptr, ptr, i32, i32, i32, i32, ptr, ptr, ptr, ptr, ptr, ptr, i32, i32, i8, i8, i8, i8 }

; Function Attrs: nounwind uwtable
define internal void @Blit1to4(ptr noundef %0) #0 {
  %2 = alloca ptr, align 8
  %3 = alloca i32, align 4
  %4 = alloca i32, align 4
  %5 = alloca ptr, align 8
  %6 = alloca ptr, align 8
  %7 = alloca ptr, align 8
  %8 = alloca i32, align 4
  %9 = alloca i32, align 4
  %10 = alloca i32, align 4
  store ptr %0, ptr %2, align 8
  call void @llvm.lifetime.start.p0(i64 4, ptr %3) #2
  call void @llvm.lifetime.start.p0(i64 4, ptr %4) #2
  call void @llvm.lifetime.start.p0(i64 8, ptr %5) #2
  call void @llvm.lifetime.start.p0(i64 8, ptr %6) #2
  call void @llvm.lifetime.start.p0(i64 8, ptr %7) #2
  call void @llvm.lifetime.start.p0(i64 4, ptr %8) #2
  call void @llvm.lifetime.start.p0(i64 4, ptr %9) #2
  %11 = load ptr, ptr %2, align 8
  %12 = getelementptr inbounds nuw %struct.SDL_BlitInfo, ptr %11, i32 0, i32 8
  %13 = load i32, ptr %12, align 8
  store i32 %13, ptr %3, align 4
  %14 = load ptr, ptr %2, align 8
  %15 = getelementptr inbounds nuw %struct.SDL_BlitInfo, ptr %14, i32 0, i32 9
  %16 = load i32, ptr %15, align 4
  store i32 %16, ptr %4, align 4
  %17 = load ptr, ptr %2, align 8
  %18 = getelementptr inbounds nuw %struct.SDL_BlitInfo, ptr %17, i32 0, i32 1
  %19 = load ptr, ptr %18, align 8
  store ptr %19, ptr %5, align 8
  %20 = load ptr, ptr %2, align 8
  %21 = getelementptr inbounds nuw %struct.SDL_BlitInfo, ptr %20, i32 0, i32 5
  %22 = load i32, ptr %21, align 4
  store i32 %22, ptr %8, align 4
  %23 = load ptr, ptr %2, align 8
  %24 = getelementptr inbounds nuw %struct.SDL_BlitInfo, ptr %23, i32 0, i32 7
  %25 = load ptr, ptr %24, align 8
  store ptr %25, ptr %7, align 8
  %26 = load ptr, ptr %2, align 8
  %27 = getelementptr inbounds nuw %struct.SDL_BlitInfo, ptr %26, i32 0, i32 11
  %28 = load i32, ptr %27, align 4
  %29 = sdiv i32 %28, 4
  store i32 %29, ptr %9, align 4
  %30 = load ptr, ptr %2, align 8
  %31 = getelementptr inbounds nuw %struct.SDL_BlitInfo, ptr %30, i32 0, i32 16
  %32 = load ptr, ptr %31, align 8
  store ptr %32, ptr %6, align 8
  br label %33

33:                                               ; preds = %129, %1
  %34 = load i32, ptr %4, align 4
  %35 = add nsw i32 %34, -1
  store i32 %35, ptr %4, align 4
  %36 = icmp ne i32 %34, 0
  br i1 %36, label %37, label %138

37:                                               ; preds = %33
  call void @llvm.lifetime.start.p0(i64 4, ptr %10) #2
  %38 = load i32, ptr %3, align 4
  %39 = add nsw i32 %38, 7
  %40 = sdiv i32 %39, 8
  store i32 %40, ptr %10, align 4
  %41 = load i32, ptr %3, align 4
  %42 = and i32 %41, 7
  switch i32 %42, label %129 [
    i32 0, label %43
    i32 7, label %54
    i32 6, label %64
    i32 5, label %74
    i32 4, label %84
    i32 3, label %94
    i32 2, label %104
    i32 1, label %114
  ]

43:                                               ; preds = %37
  br label %44

44:                                               ; preds = %124, %43
  %45 = load ptr, ptr %6, align 8
  %46 = load ptr, ptr %5, align 8
  %47 = getelementptr inbounds nuw i8, ptr %46, i32 1
  store ptr %47, ptr %5, align 8
  %48 = load i8, ptr %46, align 1
  %49 = zext i8 %48 to i64
  %50 = getelementptr inbounds nuw i32, ptr %45, i64 %49
  %51 = load i32, ptr %50, align 4
  %52 = load ptr, ptr %7, align 8
  %53 = getelementptr inbounds nuw i32, ptr %52, i32 1
  store ptr %53, ptr %7, align 8
  store i32 %51, ptr %52, align 4
  br label %54

54:                                               ; preds = %37, %44
  %55 = load ptr, ptr %6, align 8
  %56 = load ptr, ptr %5, align 8
  %57 = getelementptr inbounds nuw i8, ptr %56, i32 1
  store ptr %57, ptr %5, align 8
  %58 = load i8, ptr %56, align 1
  %59 = zext i8 %58 to i64
  %60 = getelementptr inbounds nuw i32, ptr %55, i64 %59
  %61 = load i32, ptr %60, align 4
  %62 = load ptr, ptr %7, align 8
  %63 = getelementptr inbounds nuw i32, ptr %62, i32 1
  store ptr %63, ptr %7, align 8
  store i32 %61, ptr %62, align 4
  br label %64

64:                                               ; preds = %37, %54
  %65 = load ptr, ptr %6, align 8
  %66 = load ptr, ptr %5, align 8
  %67 = getelementptr inbounds nuw i8, ptr %66, i32 1
  store ptr %67, ptr %5, align 8
  %68 = load i8, ptr %66, align 1
  %69 = zext i8 %68 to i64
  %70 = getelementptr inbounds nuw i32, ptr %65, i64 %69
  %71 = load i32, ptr %70, align 4
  %72 = load ptr, ptr %7, align 8
  %73 = getelementptr inbounds nuw i32, ptr %72, i32 1
  store ptr %73, ptr %7, align 8
  store i32 %71, ptr %72, align 4
  br label %74

74:                                               ; preds = %37, %64
  %75 = load ptr, ptr %6, align 8
  %76 = load ptr, ptr %5, align 8
  %77 = getelementptr inbounds nuw i8, ptr %76, i32 1
  store ptr %77, ptr %5, align 8
  %78 = load i8, ptr %76, align 1
  %79 = zext i8 %78 to i64
  %80 = getelementptr inbounds nuw i32, ptr %75, i64 %79
  %81 = load i32, ptr %80, align 4
  %82 = load ptr, ptr %7, align 8
  %83 = getelementptr inbounds nuw i32, ptr %82, i32 1
  store ptr %83, ptr %7, align 8
  store i32 %81, ptr %82, align 4
  br label %84

84:                                               ; preds = %37, %74
  %85 = load ptr, ptr %6, align 8
  %86 = load ptr, ptr %5, align 8
  %87 = getelementptr inbounds nuw i8, ptr %86, i32 1
  store ptr %87, ptr %5, align 8
  %88 = load i8, ptr %86, align 1
  %89 = zext i8 %88 to i64
  %90 = getelementptr inbounds nuw i32, ptr %85, i64 %89
  %91 = load i32, ptr %90, align 4
  %92 = load ptr, ptr %7, align 8
  %93 = getelementptr inbounds nuw i32, ptr %92, i32 1
  store ptr %93, ptr %7, align 8
  store i32 %91, ptr %92, align 4
  br label %94

94:                                               ; preds = %37, %84
  %95 = load ptr, ptr %6, align 8
  %96 = load ptr, ptr %5, align 8
  %97 = getelementptr inbounds nuw i8, ptr %96, i32 1
  store ptr %97, ptr %5, align 8
  %98 = load i8, ptr %96, align 1
  %99 = zext i8 %98 to i64
  %100 = getelementptr inbounds nuw i32, ptr %95, i64 %99
  %101 = load i32, ptr %100, align 4
  %102 = load ptr, ptr %7, align 8
  %103 = getelementptr inbounds nuw i32, ptr %102, i32 1
  store ptr %103, ptr %7, align 8
  store i32 %101, ptr %102, align 4
  br label %104

104:                                              ; preds = %37, %94
  %105 = load ptr, ptr %6, align 8
  %106 = load ptr, ptr %5, align 8
  %107 = getelementptr inbounds nuw i8, ptr %106, i32 1
  store ptr %107, ptr %5, align 8
  %108 = load i8, ptr %106, align 1
  %109 = zext i8 %108 to i64
  %110 = getelementptr inbounds nuw i32, ptr %105, i64 %109
  %111 = load i32, ptr %110, align 4
  %112 = load ptr, ptr %7, align 8
  %113 = getelementptr inbounds nuw i32, ptr %112, i32 1
  store ptr %113, ptr %7, align 8
  store i32 %111, ptr %112, align 4
  br label %114

114:                                              ; preds = %37, %104
  %115 = load ptr, ptr %6, align 8
  %116 = load ptr, ptr %5, align 8
  %117 = getelementptr inbounds nuw i8, ptr %116, i32 1
  store ptr %117, ptr %5, align 8
  %118 = load i8, ptr %116, align 1
  %119 = zext i8 %118 to i64
  %120 = getelementptr inbounds nuw i32, ptr %115, i64 %119
  %121 = load i32, ptr %120, align 4
  %122 = load ptr, ptr %7, align 8
  %123 = getelementptr inbounds nuw i32, ptr %122, i32 1
  store ptr %123, ptr %7, align 8
  store i32 %121, ptr %122, align 4
  br label %124

124:                                              ; preds = %114
  %125 = load i32, ptr %10, align 4
  %126 = add nsw i32 %125, -1
  store i32 %126, ptr %10, align 4
  %127 = icmp sgt i32 %126, 0
  br i1 %127, label %44, label %128, !llvm.loop !14

128:                                              ; preds = %124
  br label %129

129:                                              ; preds = %128, %37
  call void @llvm.lifetime.end.p0(i64 4, ptr %10) #2
  %130 = load i32, ptr %8, align 4
  %131 = load ptr, ptr %5, align 8
  %132 = sext i32 %130 to i64
  %133 = getelementptr inbounds i8, ptr %131, i64 %132
  store ptr %133, ptr %5, align 8
  %134 = load i32, ptr %9, align 4
  %135 = load ptr, ptr %7, align 8
  %136 = sext i32 %134 to i64
  %137 = getelementptr inbounds i32, ptr %135, i64 %136
  store ptr %137, ptr %7, align 8
  br label %33, !llvm.loop !15

138:                                              ; preds = %33
  call void @llvm.lifetime.end.p0(i64 4, ptr %9) #2
  call void @llvm.lifetime.end.p0(i64 4, ptr %8) #2
  call void @llvm.lifetime.end.p0(i64 8, ptr %7) #2
  call void @llvm.lifetime.end.p0(i64 8, ptr %6) #2
  call void @llvm.lifetime.end.p0(i64 8, ptr %5) #2
  call void @llvm.lifetime.end.p0(i64 4, ptr %4) #2
  call void @llvm.lifetime.end.p0(i64 4, ptr %3) #2
  ret void
}