; Function Attrs: nofree norecurse nosync nounwind memory(readwrite, inaccessiblemem: none) uwtable
define internal void @Blit1to4(ptr noundef readonly captures(none) %0) #1 {
  %2 = getelementptr inbounds nuw i8, ptr %0, i64 52
  %3 = load i32, ptr %2, align 4
  %4 = getelementptr inbounds nuw i8, ptr %0, i64 96
  %5 = load ptr, ptr %4, align 8
  %.not57 = icmp eq i32 %3, 0
  br i1 %.not57, label %._crit_edge, label %.lr.ph

.lr.ph:                                           ; preds = %1
  %6 = getelementptr inbounds nuw i8, ptr %0, i64 60
  %7 = load i32, ptr %6, align 4
  %8 = sdiv i32 %7, 4
  %9 = getelementptr inbounds nuw i8, ptr %0, i64 40
  %10 = load ptr, ptr %9, align 8
  %11 = getelementptr inbounds nuw i8, ptr %0, i64 28
  %12 = load i32, ptr %11, align 4
  %13 = getelementptr inbounds nuw i8, ptr %0, i64 8
  %14 = load ptr, ptr %13, align 8
  %15 = getelementptr inbounds nuw i8, ptr %0, i64 48
  %16 = load i32, ptr %15, align 8
  %17 = add nsw i32 %16, 7
  %18 = sdiv i32 %17, 8
  %19 = and i32 %16, 7
  %20 = sext i32 %12 to i64
  %21 = sext i32 %8 to i64
  br label %22

22:                                               ; preds = %.lr.ph, %82
  %.in = phi i32 [ %3, %.lr.ph ], [ %23, %82 ]
  %.03959 = phi ptr [ %14, %.lr.ph ], [ %83, %82 ]
  %.04758 = phi ptr [ %10, %.lr.ph ], [ %84, %82 ]
  %23 = add nsw i32 %.in, -1
  switch i32 %19, label %default.unreachable60 [
    i32 0, label %24
    i32 7, label %31
    i32 6, label %38
    i32 5, label %45
    i32 4, label %52
    i32 3, label %59
    i32 2, label %66
    i32 1, label %73
  ]

24:                                               ; preds = %22, %73
  %.855 = phi ptr [ %79, %73 ], [ %.04758, %22 ]
  %.8 = phi ptr [ %74, %73 ], [ %.03959, %22 ]
  %.7 = phi i32 [ %80, %73 ], [ %18, %22 ]
  %25 = getelementptr inbounds nuw i8, ptr %.8, i64 1
  %26 = load i8, ptr %.8, align 1
  %27 = zext i8 %26 to i64
  %28 = getelementptr inbounds nuw i32, ptr %5, i64 %27
  %29 = load i32, ptr %28, align 4
  %30 = getelementptr inbounds nuw i8, ptr %.855, i64 4
  store i32 %29, ptr %.855, align 4
  br label %31

31:                                               ; preds = %24, %22
  %.148 = phi ptr [ %30, %24 ], [ %.04758, %22 ]
  %.140 = phi ptr [ %25, %24 ], [ %.03959, %22 ]
  %.0 = phi i32 [ %.7, %24 ], [ %18, %22 ]
  %32 = getelementptr inbounds nuw i8, ptr %.140, i64 1
  %33 = load i8, ptr %.140, align 1
  %34 = zext i8 %33 to i64
  %35 = getelementptr inbounds nuw i32, ptr %5, i64 %34
  %36 = load i32, ptr %35, align 4
  %37 = getelementptr inbounds nuw i8, ptr %.148, i64 4
  store i32 %36, ptr %.148, align 4
  br label %38

38:                                               ; preds = %31, %22
  %.249 = phi ptr [ %37, %31 ], [ %.04758, %22 ]
  %.241 = phi ptr [ %32, %31 ], [ %.03959, %22 ]
  %.1 = phi i32 [ %.0, %31 ], [ %18, %22 ]
  %39 = getelementptr inbounds nuw i8, ptr %.241, i64 1
  %40 = load i8, ptr %.241, align 1
  %41 = zext i8 %40 to i64
  %42 = getelementptr inbounds nuw i32, ptr %5, i64 %41
  %43 = load i32, ptr %42, align 4
  %44 = getelementptr inbounds nuw i8, ptr %.249, i64 4
  store i32 %43, ptr %.249, align 4
  br label %45

45:                                               ; preds = %38, %22
  %.350 = phi ptr [ %44, %38 ], [ %.04758, %22 ]
  %.342 = phi ptr [ %39, %38 ], [ %.03959, %22 ]
  %.2 = phi i32 [ %.1, %38 ], [ %18, %22 ]
  %46 = getelementptr inbounds nuw i8, ptr %.342, i64 1
  %47 = load i8, ptr %.342, align 1
  %48 = zext i8 %47 to i64
  %49 = getelementptr inbounds nuw i32, ptr %5, i64 %48
  %50 = load i32, ptr %49, align 4
  %51 = getelementptr inbounds nuw i8, ptr %.350, i64 4
  store i32 %50, ptr %.350, align 4
  br label %52

52:                                               ; preds = %45, %22
  %.451 = phi ptr [ %51, %45 ], [ %.04758, %22 ]
  %.443 = phi ptr [ %46, %45 ], [ %.03959, %22 ]
  %.3 = phi i32 [ %.2, %45 ], [ %18, %22 ]
  %53 = getelementptr inbounds nuw i8, ptr %.443, i64 1
  %54 = load i8, ptr %.443, align 1
  %55 = zext i8 %54 to i64
  %56 = getelementptr inbounds nuw i32, ptr %5, i64 %55
  %57 = load i32, ptr %56, align 4
  %58 = getelementptr inbounds nuw i8, ptr %.451, i64 4
  store i32 %57, ptr %.451, align 4
  br label %59

59:                                               ; preds = %52, %22
  %.552 = phi ptr [ %58, %52 ], [ %.04758, %22 ]
  %.544 = phi ptr [ %53, %52 ], [ %.03959, %22 ]
  %.4 = phi i32 [ %.3, %52 ], [ %18, %22 ]
  %60 = getelementptr inbounds nuw i8, ptr %.544, i64 1
  %61 = load i8, ptr %.544, align 1
  %62 = zext i8 %61 to i64
  %63 = getelementptr inbounds nuw i32, ptr %5, i64 %62
  %64 = load i32, ptr %63, align 4
  %65 = getelementptr inbounds nuw i8, ptr %.552, i64 4
  store i32 %64, ptr %.552, align 4
  br label %66

66:                                               ; preds = %59, %22
  %.653 = phi ptr [ %65, %59 ], [ %.04758, %22 ]
  %.645 = phi ptr [ %60, %59 ], [ %.03959, %22 ]
  %.5 = phi i32 [ %.4, %59 ], [ %18, %22 ]
  %67 = getelementptr inbounds nuw i8, ptr %.645, i64 1
  %68 = load i8, ptr %.645, align 1
  %69 = zext i8 %68 to i64
  %70 = getelementptr inbounds nuw i32, ptr %5, i64 %69
  %71 = load i32, ptr %70, align 4
  %72 = getelementptr inbounds nuw i8, ptr %.653, i64 4
  store i32 %71, ptr %.653, align 4
  br label %73

73:                                               ; preds = %66, %22
  %.754 = phi ptr [ %.04758, %22 ], [ %72, %66 ]
  %.746 = phi ptr [ %.03959, %22 ], [ %67, %66 ]
  %.6 = phi i32 [ %18, %22 ], [ %.5, %66 ]
  %74 = getelementptr inbounds nuw i8, ptr %.746, i64 1
  %75 = load i8, ptr %.746, align 1
  %76 = zext i8 %75 to i64
  %77 = getelementptr inbounds nuw i32, ptr %5, i64 %76
  %78 = load i32, ptr %77, align 4
  %79 = getelementptr inbounds nuw i8, ptr %.754, i64 4
  store i32 %78, ptr %.754, align 4
  %80 = add nsw i32 %.6, -1
  %81 = icmp sgt i32 %.6, 1
  br i1 %81, label %24, label %82, !llvm.loop !14

default.unreachable60:                            ; preds = %22
  unreachable

82:                                               ; preds = %73
  %83 = getelementptr inbounds i8, ptr %74, i64 %20
  %84 = getelementptr inbounds i32, ptr %79, i64 %21
  %.not = icmp eq i32 %23, 0
  br i1 %.not, label %._crit_edge, label %22, !llvm.loop !15

._crit_edge:                                      ; preds = %82, %1
  ret void
}